; ModuleID = '36/1295.c'
source_filename = "36/1295.c"
target datalayout = "e-m:e-p270:32:32-p271:32:32-p272:64:64-i64:64-f80:128-n8:16:32:64-S128"
target triple = "x86_64-pc-linux-gnu"

@.str = private unnamed_addr constant [6 x i8] c"%s %s\00", align 1
@.str.1 = private unnamed_addr constant [3 x i8] c"NO\00", align 1
@.str.2 = private unnamed_addr constant [4 x i8] c"YES\00", align 1

; Function Attrs: noinline nounwind uwtable
define dso_local i32 @compare(i8* %0, i8* %1) #0 {
  %3 = alloca i8*, align 8
  %4 = alloca i8*, align 8
  store i8* %0, i8** %3, align 8
  store i8* %1, i8** %4, align 8
  %5 = load i8*, i8** %3, align 8
  %6 = load i8, i8* %5, align 1
  %7 = sext i8 %6 to i32
  %8 = load i8*, i8** %4, align 8
  %9 = load i8, i8* %8, align 1
  %10 = sext i8 %9 to i32
  %11 = sub nsw i32 %7, %10
  ret i32 %11
}

; Function Attrs: noinline nounwind uwtable
define dso_local i32 @main() #0 {
  %1 = alloca i32, align 4
  %2 = alloca i32, align 4
  %3 = alloca [100 x i8], align 16
  %4 = alloca [100 x i8], align 16
  store i32 0, i32* %1, align 4
  %5 = bitcast [100 x i8]* %3 to i8*
  call void @llvm.memset.p0i8.i64(i8* align 16 %5, i8 0, i64 100, i1 false)
  %6 = bitcast [100 x i8]* %4 to i8*
  call void @llvm.memset.p0i8.i64(i8* align 16 %6, i8 0, i64 100, i1 false)
  %7 = getelementptr inbounds [100 x i8], [100 x i8]* %3, i64 0, i64 0
  %8 = getelementptr inbounds [100 x i8], [100 x i8]* %4, i64 0, i64 0
  %9 = call i32 (i8*, ...) @__isoc99_scanf(i8* getelementptr inbounds ([6 x i8], [6 x i8]* @.str, i64 0, i64 0), i8* %7, i8* %8)
  %10 = getelementptr inbounds [100 x i8], [100 x i8]* %3, i64 0, i64 0
  %11 = getelementptr inbounds [100 x i8], [100 x i8]* %3, i64 0, i64 0
  %12 = call i64 @strlen(i8* %11) #4
  call void @qsort(i8* %10, i64 %12, i64 1, i32 (i8*, i8*)* @compare)
  %13 = getelementptr inbounds [100 x i8], [100 x i8]* %4, i64 0, i64 0
  %14 = getelementptr inbounds [100 x i8], [100 x i8]* %4, i64 0, i64 0
  %15 = call i64 @strlen(i8* %14) #4
  call void @qsort(i8* %13, i64 %15, i64 1, i32 (i8*, i8*)* @compare)
  store i32 0, i32* %2, align 4
  %16 = getelementptr inbounds [100 x i8], [100 x i8]* %3, i64 0, i64 0
  %17 = getelementptr inbounds [100 x i8], [100 x i8]* %4, i64 0, i64 0
  %18 = call i32 @strcmp(i8* %16, i8* %17) #4
  %19 = icmp ne i32 %18, 0
  br i1 %19, label %20, label %23

20:                                               ; preds = %0
  %21 = load i32, i32* %2, align 4
  %22 = add nsw i32 %21, 1
  store i32 %22, i32* %2, align 4
  br label %23

23:                                               ; preds = %20, %0
  %24 = load i32, i32* %2, align 4
  %25 = icmp sgt i32 %24, 0
  br i1 %25, label %26, label %28

26:                                               ; preds = %23
  %27 = call i32 (i8*, ...) @printf(i8* getelementptr inbounds ([3 x i8], [3 x i8]* @.str.1, i64 0, i64 0))
  br label %28

28:                                               ; preds = %26, %23
  %29 = load i32, i32* %2, align 4
  %30 = icmp eq i32 %29, 0
  br i1 %30, label %31, label %33

31:                                               ; preds = %28
  %32 = call i32 (i8*, ...) @printf(i8* getelementptr inbounds ([4 x i8], [4 x i8]* @.str.2, i64 0, i64 0))
  br label %33

33:                                               ; preds = %31, %28
  ret i32 0
}

; Function Attrs: argmemonly nounwind willreturn
declare void @llvm.memset.p0i8.i64(i8* nocapture writeonly, i8, i64, i1 immarg) #1

declare dso_local i32 @__isoc99_scanf(i8*, ...) #2

declare dso_local void @qsort(i8*, i64, i64, i32 (i8*, i8*)*) #2

; Function Attrs: nounwind readonly
declare dso_local i64 @strlen(i8*) #3

; Function Attrs: nounwind readonly
declare dso_local i32 @strcmp(i8*, i8*) #3

declare dso_local i32 @printf(i8*, ...) #2


!llvm.module.flags = !{!0}
!llvm.ident = !{!1}

!0 = !{i32 1, !"wchar_size", i32 4}
!1 = !{!"clang version 10.0.0-4ubuntu1 "}
